; Function Attrs: nounwind uwtable
define internal fastcc void @RELEASE_ARRAYS(ptr noundef %0, ptr nocapture noundef %1, ptr noundef %2) unnamed_addr #1 {
  %4 = getelementptr inbounds i8, ptr %1, i64 32
  %5 = load ptr, ptr %4, align 8
  %.not.i = icmp eq ptr %5, null
  br i1 %.not.i, label %unpinStreamBuffer.exit, label %6

6:                                                ; preds = %3
  %7 = icmp eq ptr %2, null
  %8 = ptrtoint ptr %2 to i64
  %9 = ptrtoint ptr %5 to i64
  %10 = sub i64 %8, %9
  %.sink.i = select i1 %7, i64 -1, i64 %10
  %11 = getelementptr inbounds i8, ptr %1, i64 40
  store i64 %.sink.i, ptr %11, align 8
  %12 = load ptr, ptr %0, align 8
  %13 = getelementptr inbounds i8, ptr %12, i64 1784
  %14 = load ptr, ptr %13, align 8
  %15 = getelementptr inbounds i8, ptr %1, i64 24
  %16 = load ptr, ptr %15, align 8
  tail call void %14(ptr noundef nonnull %0, ptr noundef %16, ptr noundef nonnull %5, i32 noundef 0) #13
  store ptr null, ptr %4, align 8
  br label %unpinStreamBuffer.exit

unpinStreamBuffer.exit:                           ; preds = %3, %6
  %17 = getelementptr inbounds i8, ptr %1, i64 88
  %18 = load ptr, ptr %17, align 8
  %.not.i5 = icmp eq ptr %18, null
  br i1 %.not.i5, label %unpinPixelBuffer.exit, label %19

19:                                               ; preds = %unpinStreamBuffer.exit
  %20 = getelementptr inbounds i8, ptr %1, i64 72
  %21 = load ptr, ptr %0, align 8
  %22 = getelementptr inbounds i8, ptr %21, i64 1784
  %23 = load ptr, ptr %22, align 8
  %24 = load ptr, ptr %20, align 8
  tail call void %23(ptr noundef nonnull %0, ptr noundef %24, ptr noundef nonnull %18, i32 noundef 0) #13
  store ptr null, ptr %17, align 8
  br label %unpinPixelBuffer.exit

unpinPixelBuffer.exit:                            ; preds = %unpinStreamBuffer.exit, %19
  ret void
}